Certificate:
    Data:
        Version: 3 (0x2)
        Serial Number: 3 (0x3)
        Signature Algorithm: md5WithRSAEncryption
        Issuer: C=LV, ST=Karlis-State, O=Karlis-Org
        Validity
            Not Before: Sep  9 07:17:10 2005 GMT
            Not After : Sep  9 07:17:10 2006 GMT
        Subject: C=LV, ST=Karlis-State, O=Arturs-Org, CN=dude
        Subject Public Key Info:
            Public Key Algorithm: rsaEncryption
            RSA Public Key: (1024 bit)
                Modulus (1024 bit):
                    00:c8:9e:5a:8f:8b:1f:cd:8f:36:6d:3d:e3:35:0b:
                    17:ba:44:a1:88:92:de:ce:87:b1:14:9f:26:b8:49:
                    ba:95:81:ef:c2:81:fb:c9:58:4f:76:34:30:ef:3e:
                    ac:42:e9:f6:38:66:08:07:66:07:0a:60:c9:31:4f:
                    10:c0:a0:7d:3c:e8:33:92:8f:43:1d:2f:cd:9e:25:
                    d3:4f:08:0b:5e:3e:3d:3b:e2:9f:3b:02:0a:2c:fa:
                    3f:0c:3b:28:44:83:3b:cc:24:4e:6b:b2:69:5a:63:
                    c0:d4:82:45:de:87:64:b1:a8:7c:6e:39:be:06:10:
                    96:19:25:98:ee:e6:e7:35:b1
                Exponent: 65537 (0x10001)
        X509v3 extensions:
            X509v3 Extended Key Usage: 
                TLS Web Server Authentication
    Signature Algorithm: md5WithRSAEncryption
        66:11:c0:d5:4d:f3:99:6a:d0:eb:f9:d6:72:51:97:cf:70:09:
        58:09:56:db:1c:f4:fe:c6:4e:0f:94:9d:99:6d:6c:d1:dc:b1:
        f3:05:69:97:11:7b:ba:b3:bb:4e:e3:03:d2:2c:db:4a:09:a7:
        ec:7e:76:e0:06:e6:5b:21:0a:72:1c:7e:4e:2d:75:02:74:51:
        f6:ca:5a:50:da:06:fd:4a:52:16:d7:94:4c:27:b7:23:fe:05:
        05:dc:4a:9b:e4:dd:4f:cb:c2:1f:b7:ca:40:85:48:17:d7:0b:
        af:81:68:02:6e:39:6d:3d:2b:10:d6:ec:e5:6c:0c:41:dc:6b:
        2b:83
-----BEGIN CERTIFICATE-----
MIICDjCCAXegAwIBAgIBAzANBgkqhkiG9w0BAQQFADA5MQswCQYDVQQGEwJMVjEV
MBMGA1UECBMMS2FybGlzLVN0YXRlMRMwEQYDVQQKEwpLYXJsaXMtT3JnMB4XDTA1
MDkwOTA3MTcxMFoXDTA2MDkwOTA3MTcxMFowSDELMAkGA1UEBhMCTFYxFTATBgNV
BAgTDEthcmxpcy1TdGF0ZTETMBEGA1UEChMKQXJ0dXJzLU9yZzENMAsGA1UEAxME
ZHVkZTCBnzANBgkqhkiG9w0BAQEFAAOBjQAwgYkCgYEAyJ5aj4sfzY82bT3jNQsX
ukShiJLezoexFJ8muEm6lYHvwoH7yVhPdjQw7z6sQun2OGYIB2YHCmDJMU8QwKB9
POgzko9DHS/NniXTTwgLXj49O+KfOwIKLPo/DDsoRIM7zCROa7JpWmPA1IJF3odk
sah8bjm+BhCWGSWY7ubnNbECAwEAAaMXMBUwEwYDVR0lBAwwCgYIKwYBBQUHAwEw
DQYJKoZIhvcNAQEEBQADgYEAZhHA1U3zmWrQ6/nWclGXz3AJWAlW2xz0/sZOD5Sd
mW1s0dyx8wVplxF7urO7TuMD0izbSgmn7H524AbmWyEKchx+Ti11AnRR9spaUNoG
/UpSFteUTCe3I/4FBdxKm+TdT8vCH7fKQIVIF9cLr4FoAm45bT0rENbs5WwMQdxr
K4M=
-----END CERTIFICATE-----
-----BEGIN RSA PRIVATE KEY-----
MIICXQIBAAKBgQDInlqPix/NjzZtPeM1Cxe6RKGIkt7Oh7EUnya4SbqVge/CgfvJ
WE92NDDvPqxC6fY4ZggHZgcKYMkxTxDAoH086DOSj0MdL82eJdNPCAtePj074p87
Agos+j8MOyhEgzvMJE5rsmlaY8DUgkXeh2SxqHxuOb4GEJYZJZju5uc1sQIDAQAB
AoGAOHgSR5tCfWrVSBSGcrTHnf+ZdEba/klFd+eAT5k5MsIbSaWqyLbZzwzLxVvf
wwn161QU6Hg4fRxXJVD7By1lcpKLNjCWAEHxrNpYXOURWeJHFpEMLm7VXGqNspFM
KOsvpuzqAdqKxkPkTE4HUGrJ4DjrKpfWq6NqDOqmfrJ5w8ECQQDy1Ilg8WlxEJtx
w1SlyhtSe1vnpjomgxvqC0GkrKcgAYOG6vgXbHMYhZ6/PC0wyZUZ5tCBrky0e8A2
EKY6DJRZAkEA03+/weQOsxiQWgkT22qzWTXWmOOqtIjPz+DJrAZRgAeWVdm0rwhF
nFL6xw3EPPhMqNltxZaiqzIWXnbSME9hGQJBAJhPrZfL9LpBk27I+UhAO+EBlUT4
o9LSO+kShGsZDH7r1CcFLPXsRUklTsxen23Rkx87Ap/Ex0IRuR9wVANnLokCQQCi
JVqaB4HNhJOGs1bp7Q+64S+43zJMXmcT9D4pCF8LTMXQ46tGVY0on+VrHf7Iz4PW
H3us9COaJDhKC8ZxCyphAkB4N6NelX+y7PApgR3Sm+LF66CqT8GVzCTJdMZ/simz
RegxWDce+3A2439GP4M9oChtCxfZLkLkkCI+Es96bMy/
-----END RSA PRIVATE KEY-----
